target datalayout = "e-m:e-p270:32:32-p271:32:32-p272:64:64-i64:64-i128:128-f80:128-n8:16:32:64-S128"
target triple = "x86_64-pc-linux-gnu"

%"class.glslang::TQualifier" = type <{ ptr, i64, i8, [3 x i8], i32, i32, i64, i64, i8, i8, i8, i8, i8, [3 x i8], i32, i8, i8, i8, i8, i32, ptr, i8, i8, [6 x i8] }>
%"struct.glslang::TTypeLoc" = type { ptr, %"struct.glslang::TSourceLoc" }
%"struct.glslang::TSourceLoc" = type { ptr, i32, i32, i32 }
%"class.glslang::TType" = type { ptr, i32, [4 x i8], %"class.glslang::TQualifier", ptr, %union.anon.92, ptr, ptr, %"struct.glslang::TSampler", ptr, ptr }
%union.anon.92 = type { ptr }
%"struct.glslang::TSampler" = type { i32 }
%"struct.std::_Vector_base.127" = type { %"struct.std::_Vector_base<glslang::TTypeLoc, glslang::pool_allocator<glslang::TTypeLoc>>::_Vector_impl" }
%"struct.std::_Vector_base<glslang::TTypeLoc, glslang::pool_allocator<glslang::TTypeLoc>>::_Vector_impl" = type { %"class.glslang::pool_allocator.128", %"struct.std::_Vector_base<glslang::TTypeLoc, glslang::pool_allocator<glslang::TTypeLoc>>::_Vector_impl_data" }
%"class.glslang::pool_allocator.128" = type { ptr }
%"struct.std::_Vector_base<glslang::TTypeLoc, glslang::pool_allocator<glslang::TTypeLoc>>::_Vector_impl_data" = type { ptr, ptr, ptr }

; Function Attrs: mustprogress nounwind uwtable
define noundef i32 @_ZN7glslang13TIntermediate18getMemberAlignmentERKNS_5TTypeERiS4_NS_14TLayoutPackingEb(ptr noundef nonnull align 8 dereferenceable(152) %0, ptr noundef nonnull align 4 dereferenceable(4) %1, ptr noundef nonnull align 4 dereferenceable(4) %2, i32 noundef %3, i1 noundef zeroext %4) #0 align 2 {
  %6 = alloca i32, align 4
  %7 = alloca ptr, align 8
  %8 = alloca ptr, align 8
  %9 = alloca ptr, align 8
  %10 = alloca i32, align 4
  %11 = alloca i8, align 1
  store ptr %0, ptr %7, align 8
  store ptr %1, ptr %8, align 8
  store ptr %2, ptr %9, align 8
  store i32 %3, ptr %10, align 4
  %12 = zext i1 %4 to i8
  store i8 %12, ptr %11, align 1
  %13 = load i32, ptr %10, align 4
  %14 = icmp eq i32 %13, 5
  br i1 %14, label %15, label %22

15:                                               ; preds = %5
  %16 = load ptr, ptr %7, align 8
  %17 = load ptr, ptr %8, align 8
  %18 = load ptr, ptr %9, align 8
  %19 = load i8, ptr %11, align 1
  %20 = trunc i8 %19 to i1
  %21 = call noundef i32 @_ZN7glslang13TIntermediate18getScalarAlignmentERKNS_5TTypeERiS4_b(ptr noundef nonnull align 8 dereferenceable(152) %16, ptr noundef nonnull align 4 dereferenceable(4) %17, ptr noundef nonnull align 4 dereferenceable(4) %18, i1 noundef zeroext %20)
  store i32 %21, ptr %6, align 4
  br label %30

22:                                               ; preds = %5
  %23 = load ptr, ptr %7, align 8
  %24 = load ptr, ptr %8, align 8
  %25 = load ptr, ptr %9, align 8
  %26 = load i32, ptr %10, align 4
  %27 = load i8, ptr %11, align 1
  %28 = trunc i8 %27 to i1
  %29 = call noundef i32 @_ZN7glslang13TIntermediate16getBaseAlignmentERKNS_5TTypeERiS4_NS_14TLayoutPackingEb(ptr noundef nonnull align 8 dereferenceable(152) %23, ptr noundef nonnull align 4 dereferenceable(4) %24, ptr noundef nonnull align 4 dereferenceable(4) %25, i32 noundef %26, i1 noundef zeroext %28)
  store i32 %29, ptr %6, align 4
  br label %30

30:                                               ; preds = %22, %15
  %31 = load i32, ptr %6, align 4
  ret i32 %31
}

; Function Attrs: mustprogress nounwind uwtable
define linkonce_odr noundef nonnull align 8 dereferenceable(32) ptr @_ZNKSt6vectorIN7glslang8TTypeLocENS0_14pool_allocatorIS1_EEEixEm(ptr noundef nonnull align 8 dereferenceable(32) %0, i64 noundef %1) #0 comdat align 2 {
  %3 = alloca ptr, align 8
  %4 = alloca i64, align 8
  store ptr %0, ptr %3, align 8
  store i64 %1, ptr %4, align 8
  %5 = load ptr, ptr %3, align 8
  %6 = getelementptr inbounds %"struct.std::_Vector_base.127", ptr %5, i32 0, i32 0
  %7 = getelementptr inbounds i8, ptr %6, i64 8
  %8 = getelementptr inbounds %"struct.std::_Vector_base<glslang::TTypeLoc, glslang::pool_allocator<glslang::TTypeLoc>>::_Vector_impl_data", ptr %7, i32 0, i32 0
  %9 = load ptr, ptr %8, align 8
  %10 = load i64, ptr %4, align 8
  %11 = getelementptr inbounds %"struct.glslang::TTypeLoc", ptr %9, i64 %10
  ret ptr %11
}

; Function Attrs: mustprogress nounwind uwtable
define linkonce_odr noundef i64 @_ZNKSt6vectorIN7glslang8TTypeLocENS0_14pool_allocatorIS1_EEE4sizeEv(ptr noundef nonnull align 8 dereferenceable(32) %0) #0 comdat align 2 {
  %2 = alloca ptr, align 8
  store ptr %0, ptr %2, align 8
  %3 = load ptr, ptr %2, align 8
  %4 = getelementptr inbounds %"struct.std::_Vector_base.127", ptr %3, i32 0, i32 0
  %5 = getelementptr inbounds i8, ptr %4, i64 8
  %6 = getelementptr inbounds %"struct.std::_Vector_base<glslang::TTypeLoc, glslang::pool_allocator<glslang::TTypeLoc>>::_Vector_impl_data", ptr %5, i32 0, i32 1
  %7 = load ptr, ptr %6, align 8
  %8 = getelementptr inbounds %"struct.std::_Vector_base.127", ptr %3, i32 0, i32 0
  %9 = getelementptr inbounds i8, ptr %8, i64 8
  %10 = getelementptr inbounds %"struct.std::_Vector_base<glslang::TTypeLoc, glslang::pool_allocator<glslang::TTypeLoc>>::_Vector_impl_data", ptr %9, i32 0, i32 0
  %11 = load ptr, ptr %10, align 8
  %12 = ptrtoint ptr %7 to i64
  %13 = ptrtoint ptr %11 to i64
  %14 = sub i64 %12, %13
  %15 = sdiv exact i64 %14, 32
  ret i64 %15
}

; Function Attrs: mustprogress nounwind uwtable
define linkonce_odr noundef ptr @_ZNK7glslang5TType9getStructEv(ptr noundef nonnull align 8 dereferenceable(152) %0) #0 comdat align 2 {
  %2 = alloca ptr, align 8
  store ptr %0, ptr %2, align 8
  %3 = load ptr, ptr %2, align 8
  %4 = getelementptr inbounds %"class.glslang::TType", ptr %3, i32 0, i32 5
  %5 = load ptr, ptr %4, align 8
  ret ptr %5
}

; Function Attrs: mustprogress nounwind uwtable
define noundef i32 @_ZN7glslang13TIntermediate12getBlockSizeERKNS_5TTypeE(ptr noundef nonnull align 8 dereferenceable(152) %0) #0 align 2 {
  %2 = alloca ptr, align 8
  %3 = alloca ptr, align 8
  %4 = alloca i32, align 4
  %5 = alloca i32, align 4
  %6 = alloca i32, align 4
  %7 = alloca i32, align 4
  store ptr %0, ptr %2, align 8
  %8 = load ptr, ptr %2, align 8
  %9 = call noundef ptr @_ZNK7glslang5TType9getStructEv(ptr noundef nonnull align 8 dereferenceable(152) %8)
  store ptr %9, ptr %3, align 8
  %10 = load ptr, ptr %3, align 8
  %11 = call noundef i64 @_ZNKSt6vectorIN7glslang8TTypeLocENS0_14pool_allocatorIS1_EEE4sizeEv(ptr noundef nonnull align 8 dereferenceable(32) %10) #12
  %12 = trunc i64 %11 to i32
  %13 = sub nsw i32 %12, 1
  store i32 %13, ptr %4, align 4
  %14 = load ptr, ptr %2, align 8
  %15 = load i32, ptr %4, align 4
  %16 = call noundef i32 @_ZN7glslang13TIntermediate9getOffsetERKNS_5TTypeEi(ptr noundef nonnull align 8 dereferenceable(152) %14, i32 noundef %15)
  store i32 %16, ptr %5, align 4
  %17 = load ptr, ptr %3, align 8
  %18 = load i32, ptr %4, align 4
  %19 = sext i32 %18 to i64
  %20 = call noundef nonnull align 8 dereferenceable(32) ptr @_ZNKSt6vectorIN7glslang8TTypeLocENS0_14pool_allocatorIS1_EEEixEm(ptr noundef nonnull align 8 dereferenceable(32) %17, i64 noundef %19) #12
  %21 = getelementptr inbounds %"struct.glslang::TTypeLoc", ptr %20, i32 0, i32 0
  %22 = load ptr, ptr %21, align 8
  %23 = load ptr, ptr %2, align 8
  %24 = load ptr, ptr %23, align 8
  %25 = getelementptr inbounds ptr, ptr %24, i64 11
  %26 = load ptr, ptr %25, align 8
  %27 = call noundef nonnull align 8 dereferenceable(80) ptr %26(ptr noundef nonnull align 8 dereferenceable(152) %23)
  %28 = getelementptr inbounds %"class.glslang::TQualifier", ptr %27, i32 0, i32 2
  %29 = load i8, ptr %28, align 8
  %30 = and i8 %29, 15
  %31 = zext i8 %30 to i32
  %32 = load ptr, ptr %2, align 8
  %33 = load ptr, ptr %32, align 8
  %34 = getelementptr inbounds ptr, ptr %33, i64 11
  %35 = load ptr, ptr %34, align 8
  %36 = call noundef nonnull align 8 dereferenceable(80) ptr %35(ptr noundef nonnull align 8 dereferenceable(152) %32)
  %37 = getelementptr inbounds %"class.glslang::TQualifier", ptr %36, i32 0, i32 1
  %38 = load i64, ptr %37, align 8
  %39 = lshr i64 %38, 60
  %40 = and i64 %39, 7
  %41 = trunc i64 %40 to i32
  %42 = icmp eq i32 %41, 1
  %43 = call noundef i32 @_ZN7glslang13TIntermediate18getMemberAlignmentERKNS_5TTypeERiS4_NS_14TLayoutPackingEb(ptr noundef nonnull align 8 dereferenceable(152) %22, ptr noundef nonnull align 4 dereferenceable(4) %6, ptr noundef nonnull align 4 dereferenceable(4) %7, i32 noundef %31, i1 noundef zeroext %42)
  %44 = load i32, ptr %5, align 4
  %45 = load i32, ptr %6, align 4
  %46 = add nsw i32 %44, %45
  ret i32 %46
}