; Function Attrs: mustprogress nounwind uwtable
define noundef i32 @_ZN7glslang13TIntermediate12getBlockSizeERKNS_5TTypeE(ptr noundef nonnull align 8 dereferenceable(152) %0) local_unnamed_addr #0 align 2 {
  %2 = alloca i32, align 4
  %3 = alloca i32, align 4
  %4 = getelementptr inbounds i8, ptr %0, i64 104
  %5 = load ptr, ptr %4, align 8
  %6 = getelementptr inbounds i8, ptr %5, i64 8
  %7 = getelementptr inbounds i8, ptr %5, i64 16
  %8 = load ptr, ptr %7, align 8
  %9 = load ptr, ptr %6, align 8
  %10 = ptrtoint ptr %8 to i64
  %11 = ptrtoint ptr %9 to i64
  %12 = sub i64 %10, %11
  %13 = lshr exact i64 %12, 5
  %14 = trunc i64 %13 to i32
  %15 = add nsw i32 %14, -1
  %16 = tail call noundef i32 @_ZN7glslang13TIntermediate9getOffsetERKNS_5TTypeEi(ptr noundef nonnull align 8 dereferenceable(152) %0, i32 noundef %15)
  %17 = sext i32 %15 to i64
  %18 = load ptr, ptr %6, align 8
  %19 = getelementptr inbounds %"struct.glslang::TTypeLoc", ptr %18, i64 %17
  %20 = load ptr, ptr %19, align 8
  %21 = load ptr, ptr %0, align 8
  %22 = getelementptr inbounds i8, ptr %21, i64 88
  %23 = load ptr, ptr %22, align 8
  %24 = tail call noundef nonnull align 8 dereferenceable(80) ptr %23(ptr noundef nonnull align 8 dereferenceable(152) %0) #18
  %25 = getelementptr inbounds i8, ptr %24, i64 16
  %26 = load i8, ptr %25, align 8
  %27 = and i8 %26, 15
  %28 = load ptr, ptr %0, align 8
  %29 = getelementptr inbounds i8, ptr %28, i64 88
  %30 = load ptr, ptr %29, align 8
  %31 = tail call noundef nonnull align 8 dereferenceable(80) ptr %30(ptr noundef nonnull align 8 dereferenceable(152) %0) #18
  %32 = getelementptr inbounds i8, ptr %31, i64 8
  %33 = load i64, ptr %32, align 8
  %34 = and i64 %33, 8070450532247928832
  %35 = icmp eq i64 %34, 1152921504606846976
  %36 = icmp eq i8 %27, 5
  br i1 %36, label %37, label %39

37:                                               ; preds = %1
  %38 = call noundef i32 @_ZN7glslang13TIntermediate18getScalarAlignmentERKNS_5TTypeERiS4_b(ptr noundef nonnull align 8 dereferenceable(152) %20, ptr noundef nonnull align 4 dereferenceable(4) %2, ptr noundef nonnull align 4 dereferenceable(4) %3, i1 noundef zeroext %35)
  br label %_ZN7glslang13TIntermediate18getMemberAlignmentERKNS_5TTypeERiS4_NS_14TLayoutPackingEb.exit

39:                                               ; preds = %1
  %40 = zext nneg i8 %27 to i32
  %41 = call noundef i32 @_ZN7glslang13TIntermediate16getBaseAlignmentERKNS_5TTypeERiS4_NS_14TLayoutPackingEb(ptr noundef nonnull align 8 dereferenceable(152) %20, ptr noundef nonnull align 4 dereferenceable(4) %2, ptr noundef nonnull align 4 dereferenceable(4) %3, i32 noundef %40, i1 noundef zeroext %35)
  br label %_ZN7glslang13TIntermediate18getMemberAlignmentERKNS_5TTypeERiS4_NS_14TLayoutPackingEb.exit

_ZN7glslang13TIntermediate18getMemberAlignmentERKNS_5TTypeERiS4_NS_14TLayoutPackingEb.exit: ; preds = %37, %39
  %42 = load i32, ptr %2, align 4
  %43 = add nsw i32 %42, %16
  ret i32 %43
}